   1              		.file	"rffe_dualband_e86.c"
   9              	.Ltext0:
  10              		.cfi_sections	.debug_frame
  11              		.section	.text.rffe_mode,"ax",%progbits
  12              		.align	2
  13              		.global	rffe_mode
  15              	rffe_mode:
  16              	.LFB3:
  17              		.file 1 "board/compal_e86/rffe_dualband_e86.c"
   1:board/compal_e86/rffe_dualband_e86.c **** #include <stdint.h>
   2:board/compal_e86/rffe_dualband_e86.c **** #include <stdio.h>
   3:board/compal_e86/rffe_dualband_e86.c **** 
   4:board/compal_e86/rffe_dualband_e86.c **** #include <debug.h>
   5:board/compal_e86/rffe_dualband_e86.c **** #include <memory.h>
   6:board/compal_e86/rffe_dualband_e86.c **** #include <rffe.h>
   7:board/compal_e86/rffe_dualband_e86.c **** #include <calypso/tsp.h>
   8:board/compal_e86/rffe_dualband_e86.c **** #include <rf/trf6151.h>
   9:board/compal_e86/rffe_dualband_e86.c **** 
  10:board/compal_e86/rffe_dualband_e86.c **** /* This is a value that has been measured on the C123 by Harald: 71dBm,
  11:board/compal_e86/rffe_dualband_e86.c ****    it is the difference between the input level at the antenna and what
  12:board/compal_e86/rffe_dualband_e86.c ****    the DSP reports, subtracted by the total gain of the TRF6151 */
  13:board/compal_e86/rffe_dualband_e86.c **** #define SYSTEM_INHERENT_GAIN	71
  14:board/compal_e86/rffe_dualband_e86.c **** 
  15:board/compal_e86/rffe_dualband_e86.c **** /* describe how the RF frontend is wired on the Motorola E86 board (C139/C140) */
  16:board/compal_e86/rffe_dualband_e86.c **** 
  17:board/compal_e86/rffe_dualband_e86.c **** #define		RITA_RESET	TSPACT(0)	/* Reset of the Rita TRF6151 */
  18:board/compal_e86/rffe_dualband_e86.c **** #define		PA_ENABLE	TSPACT(1)	/* Enable the Power Amplifier */
  19:board/compal_e86/rffe_dualband_e86.c **** #define		DCS_TX		TSPACT(6)	/* DCS Transmit Enable */
  20:board/compal_e86/rffe_dualband_e86.c **** #define		GSM_TX1		TSPACT(8)	/* GSM Transmit Enable 1 */
  21:board/compal_e86/rffe_dualband_e86.c **** 
  22:board/compal_e86/rffe_dualband_e86.c **** /* in order to save a transistor, the E86 has a second signal for GSM TX */
  23:board/compal_e86/rffe_dualband_e86.c **** #define		GSM_TX2		TSPACT(2)	/* GSM Transmit Enable 2 */
  24:board/compal_e86/rffe_dualband_e86.c **** 
  25:board/compal_e86/rffe_dualband_e86.c **** #define		IOTA_STROBE	TSPEN(0)	/* Strobe for the Iota TSP */
  26:board/compal_e86/rffe_dualband_e86.c **** #define		RITA_STROBE	TSPEN(2)	/* Strobe for the Rita TSP */
  27:board/compal_e86/rffe_dualband_e86.c **** 
  28:board/compal_e86/rffe_dualband_e86.c **** /* switch RF Frontend Mode */
  29:board/compal_e86/rffe_dualband_e86.c **** void rffe_mode(enum gsm_band band, int tx)
  30:board/compal_e86/rffe_dualband_e86.c **** {
  18              		.loc 1 30 0
  19              		.cfi_startproc
  20              		@ args = 0, pretend = 0, frame = 0
  21              		@ frame_needed = 0, uses_anonymous_args = 0
  22              	.LVL0:
  23 0000 04E02DE5 		str	lr, [sp, #-4]!
  24              	.LCFI0:
  25              		.cfi_def_cfa_offset 4
  31:board/compal_e86/rffe_dualband_e86.c **** 	uint16_t tspact = tsp_act_state();
  26              		.loc 1 31 0
  27              		.cfi_offset 14, -4
  28 0004 FEFFFFEB 		bl	tsp_act_state
  29              	.LVL1:
  32:board/compal_e86/rffe_dualband_e86.c **** 
  33:board/compal_e86/rffe_dualband_e86.c **** 	/* First we mask off all bits from the state cache */
  34:board/compal_e86/rffe_dualband_e86.c **** 	tspact &= ~(PA_ENABLE);
  30              		.loc 1 34 0
  31 0008 0C309FE5 		ldr	r3, .L2
  32 000c 033000E0 		and	r3, r0, r3
  33              	.LVL2:
  35:board/compal_e86/rffe_dualband_e86.c **** 	tspact |=  DCS_TX | GSM_TX1 | GSM_TX2;	/* low-active */
  36:board/compal_e86/rffe_dualband_e86.c **** 
  37:board/compal_e86/rffe_dualband_e86.c **** #ifdef CONFIG_TX_ENABLE
  38:board/compal_e86/rffe_dualband_e86.c **** 	/* Then we selectively set the bits on, if required */
  39:board/compal_e86/rffe_dualband_e86.c **** 	if (tx) {
  40:board/compal_e86/rffe_dualband_e86.c **** 		if (band == GSM_BAND_850 || band == GSM_BAND_900)
  41:board/compal_e86/rffe_dualband_e86.c **** 			tspact &= ~(GSM_TX1 | GSM_TX2);
  42:board/compal_e86/rffe_dualband_e86.c **** 		else
  43:board/compal_e86/rffe_dualband_e86.c **** 			tspact &= ~DCS_TX;
  44:board/compal_e86/rffe_dualband_e86.c **** 		tspact |= PA_ENABLE;
  45:board/compal_e86/rffe_dualband_e86.c **** 	}
  46:board/compal_e86/rffe_dualband_e86.c **** #endif /* TRANSMIT_SUPPORT */
  47:board/compal_e86/rffe_dualband_e86.c **** 
  48:board/compal_e86/rffe_dualband_e86.c **** 	tsp_act_update(tspact);
  34              		.loc 1 48 0
  35 0010 510F83E3 		orr	r0, r3, #324
  49:board/compal_e86/rffe_dualband_e86.c **** }
  36              		.loc 1 49 0
  37 0014 04E09DE4 		ldr	lr, [sp], #4
  48:board/compal_e86/rffe_dualband_e86.c **** 	tsp_act_update(tspact);
  38              		.loc 1 48 0
  39 0018 FEFFFFEA 		b	tsp_act_update
  40              	.LVL3:
  41              	.L3:
  42              		.align	2
  43              	.L2:
  44 001c FDFF0000 		.word	65533
  45              		.cfi_endproc
  46              	.LFE3:
  48              		.section	.text.rffe_get_rx_ports,"ax",%progbits
  49              		.align	2
  50              		.global	rffe_get_rx_ports
  52              	rffe_get_rx_ports:
  53              	.LFB4:
  50:board/compal_e86/rffe_dualband_e86.c **** 
  51:board/compal_e86/rffe_dualband_e86.c **** /* Returns RF wiring */
  52:board/compal_e86/rffe_dualband_e86.c **** uint32_t rffe_get_rx_ports(void)
  53:board/compal_e86/rffe_dualband_e86.c **** {
  54              		.loc 1 53 0
  55              		.cfi_startproc
  56              		@ args = 0, pretend = 0, frame = 0
  57              		@ frame_needed = 0, uses_anonymous_args = 0
  58              		@ link register save eliminated.
  54:board/compal_e86/rffe_dualband_e86.c **** 	return (1 << PORT_LO) | (1 << PORT_DCS1800);
  55:board/compal_e86/rffe_dualband_e86.c **** }
  59              		.loc 1 55 0
  60 0000 1100A0E3 		mov	r0, #17
  61 0004 1EFF2FE1 		bx	lr
  62              		.cfi_endproc
  63              	.LFE4:
  65              		.section	.text.rffe_get_tx_ports,"ax",%progbits
  66              		.align	2
  67              		.global	rffe_get_tx_ports
  69              	rffe_get_tx_ports:
  70              	.LFB5:
  56:board/compal_e86/rffe_dualband_e86.c **** 
  57:board/compal_e86/rffe_dualband_e86.c **** uint32_t rffe_get_tx_ports(void)
  58:board/compal_e86/rffe_dualband_e86.c **** {
  71              		.loc 1 58 0
  72              		.cfi_startproc
  73              		@ args = 0, pretend = 0, frame = 0
  74              		@ frame_needed = 0, uses_anonymous_args = 0
  75              		@ link register save eliminated.
  59:board/compal_e86/rffe_dualband_e86.c **** 	return (1 << PORT_LO) | (1 << PORT_HI);
  60:board/compal_e86/rffe_dualband_e86.c **** }
  76              		.loc 1 60 0
  77 0000 0300A0E3 		mov	r0, #3
  78 0004 1EFF2FE1 		bx	lr
  79              		.cfi_endproc
  80              	.LFE5:
  82              		.section	.text.rffe_init,"ax",%progbits
  83              		.align	2
  84              		.global	rffe_init
  86              	rffe_init:
  87              	.LFB6:
  61:board/compal_e86/rffe_dualband_e86.c **** 
  62:board/compal_e86/rffe_dualband_e86.c **** 
  63:board/compal_e86/rffe_dualband_e86.c **** #define MCU_SW_TRACE	0xfffef00e
  64:board/compal_e86/rffe_dualband_e86.c **** #define ARM_CONF_REG	0xfffef006
  65:board/compal_e86/rffe_dualband_e86.c **** 
  66:board/compal_e86/rffe_dualband_e86.c **** void rffe_init(void)
  67:board/compal_e86/rffe_dualband_e86.c **** {
  88              		.loc 1 67 0
  89              		.cfi_startproc
  90              		@ args = 0, pretend = 0, frame = 0
  91              		@ frame_needed = 0, uses_anonymous_args = 0
  68:board/compal_e86/rffe_dualband_e86.c **** 	uint16_t reg;
  69:board/compal_e86/rffe_dualband_e86.c **** 
  70:board/compal_e86/rffe_dualband_e86.c **** 	reg = readw(ARM_CONF_REG);
  92              		.loc 1 70 0
  93 0000 44309FE5 		ldr	r3, .L7
  71:board/compal_e86/rffe_dualband_e86.c **** 	reg &= ~ (1 << 5);	/* TSPACT6 I/O function, not nCS6 */
  94              		.loc 1 71 0
  95 0004 44209FE5 		ldr	r2, .L7+4
  70:board/compal_e86/rffe_dualband_e86.c **** 	reg = readw(ARM_CONF_REG);
  96              		.loc 1 70 0
  97 0008 B91F53E1 		ldrh	r1, [r3, #-249]
  98              	.LVL4:
  99              		.loc 1 71 0
 100 000c 022001E0 		and	r2, r1, r2
 101              	.LVL5:
  67:board/compal_e86/rffe_dualband_e86.c **** {
 102              		.loc 1 67 0
 103 0010 04E02DE5 		str	lr, [sp, #-4]!
 104              	.LCFI1:
 105              		.cfi_def_cfa_offset 4
  72:board/compal_e86/rffe_dualband_e86.c **** 	writew(reg, ARM_CONF_REG);
 106              		.loc 1 72 0
 107 0014 B92F43E1 		strh	r2, [r3, #-249]	@ movhi
  73:board/compal_e86/rffe_dualband_e86.c **** 
  74:board/compal_e86/rffe_dualband_e86.c **** 	reg = readw(MCU_SW_TRACE);
  75:board/compal_e86/rffe_dualband_e86.c **** 	reg &= ~(1 << 5);	/* TSPACT8 I/O function, not nMREQ */
 108              		.loc 1 75 0
 109 0018 30209FE5 		ldr	r2, .L7+4
 110              	.LVL6:
  74:board/compal_e86/rffe_dualband_e86.c **** 	reg = readw(MCU_SW_TRACE);
 111              		.loc 1 74 0
 112 001c B11F53E1 		ldrh	r1, [r3, #-241]
 113              	.LVL7:
  76:board/compal_e86/rffe_dualband_e86.c **** 	writew(reg, MCU_SW_TRACE);
  77:board/compal_e86/rffe_dualband_e86.c **** 
  78:board/compal_e86/rffe_dualband_e86.c **** 	/* Configure the TSPEN which is connected to the TWL3025 */
  79:board/compal_e86/rffe_dualband_e86.c **** 	tsp_setup(IOTA_STROBE, 1, 0, 0);
 114              		.loc 1 79 0
 115 0020 0000A0E3 		mov	r0, #0
  75:board/compal_e86/rffe_dualband_e86.c **** 	reg &= ~(1 << 5);	/* TSPACT8 I/O function, not nMREQ */
 116              		.loc 1 75 0
 117 0024 022001E0 		and	r2, r1, r2
 118              	.LVL8:
  76:board/compal_e86/rffe_dualband_e86.c **** 	writew(reg, MCU_SW_TRACE);
 119              		.loc 1 76 0
 120 0028 B12F43E1 		strh	r2, [r3, #-241]	@ movhi
 121              		.loc 1 79 0
 122 002c 0110A0E3 		mov	r1, #1
 123 0030 0020A0E1 		mov	r2, r0
 124              	.LVL9:
 125 0034 0030A0E1 		mov	r3, r0
 126              		.cfi_offset 14, -4
 127 0038 FEFFFFEB 		bl	tsp_setup
  80:board/compal_e86/rffe_dualband_e86.c **** 
  81:board/compal_e86/rffe_dualband_e86.c **** 	trf6151_init(RITA_STROBE, RITA_RESET);
 128              		.loc 1 81 0
 129 003c 0200A0E3 		mov	r0, #2
 130 0040 0110A0E3 		mov	r1, #1
  82:board/compal_e86/rffe_dualband_e86.c **** }
 131              		.loc 1 82 0
 132 0044 04E09DE4 		ldr	lr, [sp], #4
  81:board/compal_e86/rffe_dualband_e86.c **** 	trf6151_init(RITA_STROBE, RITA_RESET);
 133              		.loc 1 81 0
 134 0048 FEFFFFEA 		b	trf6151_init
 135              	.L8:
 136              		.align	2
 137              	.L7:
 138 004c FFF0FEFF 		.word	-69377
 139 0050 DFFF0000 		.word	65503
 140              		.cfi_endproc
 141              	.LFE6:
 143              		.section	.text.rffe_get_gain,"ax",%progbits
 144              		.align	2
 145              		.global	rffe_get_gain
 147              	rffe_get_gain:
 148              	.LFB7:
  83:board/compal_e86/rffe_dualband_e86.c **** 
  84:board/compal_e86/rffe_dualband_e86.c **** uint8_t rffe_get_gain(void)
  85:board/compal_e86/rffe_dualband_e86.c **** {
 149              		.loc 1 85 0
 150              		.cfi_startproc
 151              		@ args = 0, pretend = 0, frame = 0
 152              		@ frame_needed = 0, uses_anonymous_args = 0
 153              		@ link register save eliminated.
  86:board/compal_e86/rffe_dualband_e86.c **** 	return trf6151_get_gain();
  87:board/compal_e86/rffe_dualband_e86.c **** }
 154              		.loc 1 87 0
  86:board/compal_e86/rffe_dualband_e86.c **** 	return trf6151_get_gain();
 155              		.loc 1 86 0
 156 0000 FEFFFFEA 		b	trf6151_get_gain
 157              		.cfi_endproc
 158              	.LFE7:
 160              		.section	.text.rffe_set_gain,"ax",%progbits
 161              		.align	2
 162              		.global	rffe_set_gain
 164              	rffe_set_gain:
 165              	.LFB8:
  88:board/compal_e86/rffe_dualband_e86.c **** 
  89:board/compal_e86/rffe_dualband_e86.c **** void rffe_set_gain(uint8_t dbm)
  90:board/compal_e86/rffe_dualband_e86.c **** {
 166              		.loc 1 90 0
 167              		.cfi_startproc
 168              		@ args = 0, pretend = 0, frame = 0
 169              		@ frame_needed = 0, uses_anonymous_args = 0
 170              		@ link register save eliminated.
 171              	.LVL10:
 172              		.loc 1 90 0
 173 0000 FF0000E2 		and	r0, r0, #255
 174              	.LVL11:
  91:board/compal_e86/rffe_dualband_e86.c **** 	trf6151_set_gain(dbm);
  92:board/compal_e86/rffe_dualband_e86.c **** }
 175              		.loc 1 92 0
  91:board/compal_e86/rffe_dualband_e86.c **** 	trf6151_set_gain(dbm);
 176              		.loc 1 91 0
 177 0004 FEFFFFEA 		b	trf6151_set_gain
 178              		.cfi_endproc
 179              	.LFE8:
 181              		.section	.text.rffe_compute_gain,"ax",%progbits
 182              		.align	2
 183              		.global	rffe_compute_gain
 185              	rffe_compute_gain:
 186              	.LFB9:
  93:board/compal_e86/rffe_dualband_e86.c **** 
  94:board/compal_e86/rffe_dualband_e86.c **** const uint8_t system_inherent_gain = SYSTEM_INHERENT_GAIN;
  95:board/compal_e86/rffe_dualband_e86.c **** 
  96:board/compal_e86/rffe_dualband_e86.c **** /* Given the expected input level of exp_inp dBm/8 and the target of target_bb
  97:board/compal_e86/rffe_dualband_e86.c ****  * dBm8, configure the RF Frontend with the respective gain */
  98:board/compal_e86/rffe_dualband_e86.c **** void rffe_compute_gain(int16_t exp_inp, int16_t target_bb)
  99:board/compal_e86/rffe_dualband_e86.c **** {
 187              		.loc 1 99 0
 188              		.cfi_startproc
 189              		@ args = 0, pretend = 0, frame = 0
 190              		@ frame_needed = 0, uses_anonymous_args = 0
 191              		@ link register save eliminated.
 192              	.LVL12:
 193              		.loc 1 99 0
 194 0000 0008A0E1 		mov	r0, r0, asl #16
 195              	.LVL13:
 196 0004 0118A0E1 		mov	r1, r1, asl #16
 197              	.LVL14:
 100:board/compal_e86/rffe_dualband_e86.c **** 	trf6151_compute_gain(exp_inp, target_bb);
 198              		.loc 1 100 0
 199 0008 4008A0E1 		mov	r0, r0, asr #16
 200 000c 4118A0E1 		mov	r1, r1, asr #16
 101:board/compal_e86/rffe_dualband_e86.c **** }
 201              		.loc 1 101 0
 100:board/compal_e86/rffe_dualband_e86.c **** 	trf6151_compute_gain(exp_inp, target_bb);
 202              		.loc 1 100 0
 203 0010 FEFFFFEA 		b	trf6151_compute_gain
 204              		.cfi_endproc
 205              	.LFE9:
 207              		.section	.text.rffe_rx_win_ctrl,"ax",%progbits
 208              		.align	2
 209              		.global	rffe_rx_win_ctrl
 211              	rffe_rx_win_ctrl:
 212              	.LFB10:
 102:board/compal_e86/rffe_dualband_e86.c **** 
 103:board/compal_e86/rffe_dualband_e86.c **** void rffe_rx_win_ctrl(int16_t exp_inp, int16_t target_bb)
 104:board/compal_e86/rffe_dualband_e86.c **** {
 213              		.loc 1 104 0
 214              		.cfi_startproc
 215              		@ args = 0, pretend = 0, frame = 0
 216              		@ frame_needed = 0, uses_anonymous_args = 0
 217              		@ link register save eliminated.
 218              	.LVL15:
 105:board/compal_e86/rffe_dualband_e86.c **** 	/* FIXME */
 106:board/compal_e86/rffe_dualband_e86.c **** }
 219              		.loc 1 106 0
 220 0000 1EFF2FE1 		bx	lr
 221              		.cfi_endproc
 222              	.LFE10:
 224              		.global	system_inherent_gain
 225              		.section	.rodata
 228              	system_inherent_gain:
 229 0000 47       		.byte	71
 230              		.text
 231              	.Letext0: